target datalayout = "e-m:e-p270:32:32-p271:32:32-p272:64:64-i64:64-i128:128-f80:128-n8:16:32:64-S128"
target triple = "x86_64-unknown-linux-gnu"

%struct.QemuMutex = type { %union.pthread_mutex_t, i8 }
%union.pthread_mutex_t = type { %struct.__pthread_mutex_s }
%struct.__pthread_mutex_s = type { i32, i32, i32, i32, i32, i16, i16, %struct.__pthread_internal_list }
%struct.__pthread_internal_list = type { ptr, ptr }
%struct.QemuEvent = type { i32, i8 }
%struct.RAMBlock = type { %struct.rcu_head, ptr, ptr, ptr, i64, i64, i64, ptr, i32, [256 x i8], %struct.anon.2, %struct.anon.3, i32, i64, i64, ptr, ptr, ptr, i8, i64 }
%struct.rcu_head = type { ptr, ptr }
%struct.anon.2 = type { ptr, ptr }
%struct.anon.3 = type { ptr }
%struct.RAMState = type { [2 x %struct.PageSearchStatus], i32, i64, ptr, i64, i32, i32, i64, i64, i64, i64, i64, i64, i8, i8, i64, i64, i64, %struct.QemuMutex, ptr, %struct.QemuMutex, %struct.anon.5, i32 }
%struct.PageSearchStatus = type { ptr, ptr, ptr, i64, i8, i8, i64, i64 }
%struct.anon.5 = type { ptr, ptr }
%struct.MigrationState = type { %struct.DeviceState, %struct.QemuThread, ptr, ptr, ptr, ptr, %struct.QemuSemaphore, ptr, %struct.QemuMutex, %struct.QemuSemaphore, i64, double, i64, i64, i64, %struct.MigrationParameters, i32, %struct.anon.7, double, i64, i64, i64, i64, i64, [23 x i8], i64, i32, i8, i8, i8, i8, %struct.QemuSemaphore, %struct.QemuSemaphore, %struct.QemuSemaphore, %struct.QemuEvent, i64, ptr, ptr, %struct.QemuMutex, i8, i8, i8, i8, %struct.QemuSemaphore, i8, i8, i8, i8, ptr, ptr, i8, i8 }
%struct.DeviceState = type { %struct.Object, ptr, ptr, i8, i8, i64, ptr, i32, i8, ptr, %struct.NamedGPIOListHead, %struct.NamedClockListHead, %struct.BusStateHead, i32, i32, i32, %struct.ResettableState, ptr, %struct.MemReentrancyGuard }
%struct.Object = type { ptr, ptr, ptr, i32, ptr }
%struct.NamedGPIOListHead = type { ptr }
%struct.NamedClockListHead = type { ptr }
%struct.BusStateHead = type { ptr }
%struct.ResettableState = type { i32, i8, i8 }
%struct.MemReentrancyGuard = type { i8 }
%struct.QemuThread = type { i64 }
%struct.MigrationParameters = type { i8, i64, i8, i64, i8, i64, i8, i64, i8, i8, i8, i8, i8, i8, i8, i8, i8, i8, i8, i8, i8, i8, i8, i8, ptr, ptr, ptr, i8, i64, i8, i64, i8, i64, i8, i32, i8, i8, i8, i8, i8, i64, i8, i64, i8, i8, i8, i32, i8, i8, i8, i8, i8, ptr, i8, i64, i8, i64, i8, i32 }
%struct.anon.7 = type { ptr, %struct.QemuThread, i8, %struct.QemuSemaphore, %struct.QemuSemaphore }
%struct.QemuSemaphore = type { %struct.QemuMutex, %struct.QemuCond, i32 }
%struct.QemuCond = type { %union.pthread_cond_t, i8 }
%union.pthread_cond_t = type { %struct.__pthread_cond_s }
%struct.__pthread_cond_s = type { %union.__atomic_wide_counter, %union.__atomic_wide_counter, [2 x i32], [2 x i32], i32, i32, [2 x i32] }
%union.__atomic_wide_counter = type { i64 }
%struct.CompressParam = type { i8, i8, i8, i32, ptr, %struct.QemuMutex, %struct.QemuCond, ptr, i64, %struct.z_stream_s, ptr }
%struct.z_stream_s = type { ptr, i32, i64, ptr, i32, i64, ptr, ptr, ptr, ptr, ptr, i32, i64, i64 }

@.str = private unnamed_addr constant [24 x i8] c"../qemu/migration/ram.c\00", align 1
@ram_state = internal global ptr null, align 8
@.str.5 = private unnamed_addr constant [30 x i8] c"block == pss->last_sent_block\00", align 1
@__PRETTY_FUNCTION__.compress_send_queued_data = private unnamed_addr constant [47 x i8] c"int compress_send_queued_data(CompressParam *)\00", align 1
@.str.6 = private unnamed_addr constant [36 x i8] c"qemu_file_buffer_empty(param->file)\00", align 1
@.str.7 = private unnamed_addr constant [37 x i8] c"!qemu_file_buffer_empty(param->file)\00", align 1

; Function Attrs: nounwind sspstrong uwtable
define dso_local void @ram_release_page(ptr noundef %rbname, i64 noundef %offset) #0 {
entry:
  %rbname.addr = alloca ptr, align 8
  %offset.addr = alloca i64, align 8
  store ptr %rbname, ptr %rbname.addr, align 8
  store i64 %offset, ptr %offset.addr, align 8
  %call = call zeroext i1 @migrate_release_ram()
  br i1 %call, label %lor.lhs.false, label %if.then

lor.lhs.false:                                    ; preds = %entry
  %call1 = call zeroext i1 @migration_in_postcopy()
  br i1 %call1, label %if.end, label %if.then

if.then:                                          ; preds = %lor.lhs.false, %entry
  br label %return

if.end:                                           ; preds = %lor.lhs.false
  %0 = load ptr, ptr %rbname.addr, align 8
  %1 = load i64, ptr %offset.addr, align 8
  %call2 = call i32 @ram_discard_range(ptr noundef %0, i64 noundef %1, i64 noundef 4096)
  br label %return

return:                                           ; preds = %if.end, %if.then
  ret void
}

; Function Attrs: nounwind sspstrong uwtable
define internal i64 @save_page_header(ptr noundef %pss, ptr noundef %f, ptr noundef %block, i64 noundef %offset) #0 {
entry:
  %pss.addr = alloca ptr, align 8
  %f.addr = alloca ptr, align 8
  %block.addr = alloca ptr, align 8
  %offset.addr = alloca i64, align 8
  %size = alloca i64, align 8
  %len = alloca i64, align 8
  %same_block = alloca i8, align 1
  store ptr %pss, ptr %pss.addr, align 8
  store ptr %f, ptr %f.addr, align 8
  store ptr %block, ptr %block.addr, align 8
  store i64 %offset, ptr %offset.addr, align 8
  %0 = load ptr, ptr %block.addr, align 8
  %1 = load ptr, ptr %pss.addr, align 8
  %last_sent_block = getelementptr inbounds %struct.PageSearchStatus, ptr %1, i32 0, i32 1
  %2 = load ptr, ptr %last_sent_block, align 8
  %cmp = icmp eq ptr %0, %2
  %frombool = zext i1 %cmp to i8
  store i8 %frombool, ptr %same_block, align 1
  %3 = load i8, ptr %same_block, align 1
  %tobool = trunc i8 %3 to i1
  br i1 %tobool, label %if.then, label %if.end

if.then:                                          ; preds = %entry
  %4 = load i64, ptr %offset.addr, align 8
  %or = or i64 %4, 32
  store i64 %or, ptr %offset.addr, align 8
  br label %if.end

if.end:                                           ; preds = %if.then, %entry
  %5 = load ptr, ptr %f.addr, align 8
  %6 = load i64, ptr %offset.addr, align 8
  call void @qemu_put_be64(ptr noundef %5, i64 noundef %6)
  store i64 8, ptr %size, align 8
  %7 = load i8, ptr %same_block, align 1
  %tobool1 = trunc i8 %7 to i1
  br i1 %tobool1, label %if.end7, label %if.then2

if.then2:                                         ; preds = %if.end
  %8 = load ptr, ptr %block.addr, align 8
  %idstr = getelementptr inbounds %struct.RAMBlock, ptr %8, i32 0, i32 9
  %arraydecay = getelementptr inbounds [256 x i8], ptr %idstr, i64 0, i64 0
  %call = call i64 @strlen(ptr noundef %arraydecay) #15
  store i64 %call, ptr %len, align 8
  %9 = load ptr, ptr %f.addr, align 8
  %10 = load i64, ptr %len, align 8
  %conv = trunc i64 %10 to i32
  call void @qemu_put_byte(ptr noundef %9, i32 noundef %conv)
  %11 = load ptr, ptr %f.addr, align 8
  %12 = load ptr, ptr %block.addr, align 8
  %idstr3 = getelementptr inbounds %struct.RAMBlock, ptr %12, i32 0, i32 9
  %arraydecay4 = getelementptr inbounds [256 x i8], ptr %idstr3, i64 0, i64 0
  %13 = load i64, ptr %len, align 8
  call void @qemu_put_buffer(ptr noundef %11, ptr noundef %arraydecay4, i64 noundef %13)
  %14 = load i64, ptr %len, align 8
  %add = add i64 1, %14
  %15 = load i64, ptr %size, align 8
  %add5 = add i64 %15, %add
  store i64 %add5, ptr %size, align 8
  %16 = load ptr, ptr %block.addr, align 8
  %17 = load ptr, ptr %pss.addr, align 8
  %last_sent_block6 = getelementptr inbounds %struct.PageSearchStatus, ptr %17, i32 0, i32 1
  store ptr %16, ptr %last_sent_block6, align 8
  br label %if.end7

if.end7:                                          ; preds = %if.then2, %if.end
  %18 = load i64, ptr %size, align 8
  ret i64 %18
}

; Function Attrs: nounwind sspstrong uwtable
define dso_local i32 @compress_send_queued_data(ptr noundef %param) #0 {
entry:
  %retval = alloca i32, align 4
  %param.addr = alloca ptr, align 8
  %pss = alloca ptr, align 8
  %ms = alloca ptr, align 8
  %file = alloca ptr, align 8
  %len = alloca i32, align 4
  %block = alloca ptr, align 8
  %offset = alloca i64, align 8
  store ptr %param, ptr %param.addr, align 8
  %0 = load ptr, ptr @ram_state, align 8
  %pss1 = getelementptr inbounds %struct.RAMState, ptr %0, i32 0, i32 0
  %arrayidx = getelementptr [2 x %struct.PageSearchStatus], ptr %pss1, i64 0, i64 0
  store ptr %arrayidx, ptr %pss, align 8
  %call = call ptr @migrate_get_current()
  store ptr %call, ptr %ms, align 8
  %1 = load ptr, ptr %ms, align 8
  %to_dst_file = getelementptr inbounds %struct.MigrationState, ptr %1, i32 0, i32 4
  %2 = load ptr, ptr %to_dst_file, align 8
  store ptr %2, ptr %file, align 8
  store i32 0, ptr %len, align 4
  %3 = load ptr, ptr %param.addr, align 8
  %block2 = getelementptr inbounds %struct.CompressParam, ptr %3, i32 0, i32 7
  %4 = load ptr, ptr %block2, align 8
  store ptr %4, ptr %block, align 8
  %5 = load ptr, ptr %param.addr, align 8
  %offset3 = getelementptr inbounds %struct.CompressParam, ptr %5, i32 0, i32 8
  %6 = load i64, ptr %offset3, align 8
  store i64 %6, ptr %offset, align 8
  %7 = load ptr, ptr %param.addr, align 8
  %result = getelementptr inbounds %struct.CompressParam, ptr %7, i32 0, i32 3
  %8 = load i32, ptr %result, align 4
  %cmp = icmp eq i32 %8, 0
  br i1 %cmp, label %if.then, label %if.end

if.then:                                          ; preds = %entry
  store i32 0, ptr %retval, align 4
  br label %return

if.end:                                           ; preds = %entry
  %9 = load ptr, ptr %block, align 8
  %10 = load ptr, ptr %pss, align 8
  %last_sent_block = getelementptr inbounds %struct.PageSearchStatus, ptr %10, i32 0, i32 1
  %11 = load ptr, ptr %last_sent_block, align 8
  %cmp4 = icmp eq ptr %9, %11
  br i1 %cmp4, label %if.then5, label %if.else

if.then5:                                         ; preds = %if.end
  br label %if.end6

if.else:                                          ; preds = %if.end
  call void @__assert_fail(ptr noundef @.str.5, ptr noundef @.str, i32 noundef 1278, ptr noundef @__PRETTY_FUNCTION__.compress_send_queued_data) #14
  unreachable

if.end6:                                          ; preds = %if.then5
  %12 = load ptr, ptr %param.addr, align 8
  %result7 = getelementptr inbounds %struct.CompressParam, ptr %12, i32 0, i32 3
  %13 = load i32, ptr %result7, align 4
  %cmp8 = icmp eq i32 %13, 1
  br i1 %cmp8, label %if.then9, label %if.else18

if.then9:                                         ; preds = %if.end6
  %14 = load ptr, ptr %param.addr, align 8
  %file10 = getelementptr inbounds %struct.CompressParam, ptr %14, i32 0, i32 4
  %15 = load ptr, ptr %file10, align 8
  %call11 = call zeroext i1 @qemu_file_buffer_empty(ptr noundef %15)
  br i1 %call11, label %if.then12, label %if.else13

if.then12:                                        ; preds = %if.then9
  br label %if.end14

if.else13:                                        ; preds = %if.then9
  call void @__assert_fail(ptr noundef @.str.6, ptr noundef @.str, i32 noundef 1281, ptr noundef @__PRETTY_FUNCTION__.compress_send_queued_data) #14
  unreachable

if.end14:                                         ; preds = %if.then12
  %16 = load ptr, ptr %pss, align 8
  %17 = load ptr, ptr %file, align 8
  %18 = load ptr, ptr %block, align 8
  %19 = load i64, ptr %offset, align 8
  %or = or i64 %19, 2
  %call15 = call i64 @save_page_header(ptr noundef %16, ptr noundef %17, ptr noundef %18, i64 noundef %or)
  %20 = load i32, ptr %len, align 4
  %conv = sext i32 %20 to i64
  %add = add i64 %conv, %call15
  %conv16 = trunc i64 %add to i32
  store i32 %conv16, ptr %len, align 4
  %21 = load ptr, ptr %file, align 8
  call void @qemu_put_byte(ptr noundef %21, i32 noundef 0)
  %22 = load i32, ptr %len, align 4
  %add17 = add i32 %22, 1
  store i32 %add17, ptr %len, align 4
  %23 = load ptr, ptr %block, align 8
  %idstr = getelementptr inbounds %struct.RAMBlock, ptr %23, i32 0, i32 9
  %arraydecay = getelementptr inbounds [256 x i8], ptr %idstr, i64 0, i64 0
  %24 = load i64, ptr %offset, align 8
  call void @ram_release_page(ptr noundef %arraydecay, i64 noundef %24)
  br label %if.end38

if.else18:                                        ; preds = %if.end6
  %25 = load ptr, ptr %param.addr, align 8
  %result19 = getelementptr inbounds %struct.CompressParam, ptr %25, i32 0, i32 3
  %26 = load i32, ptr %result19, align 4
  %cmp20 = icmp eq i32 %26, 2
  br i1 %cmp20, label %if.then22, label %if.else36

if.then22:                                        ; preds = %if.else18
  %27 = load ptr, ptr %param.addr, align 8
  %file23 = getelementptr inbounds %struct.CompressParam, ptr %27, i32 0, i32 4
  %28 = load ptr, ptr %file23, align 8
  %call24 = call zeroext i1 @qemu_file_buffer_empty(ptr noundef %28)
  br i1 %call24, label %if.else26, label %if.then25

if.then25:                                        ; preds = %if.then22
  br label %if.end27

if.else26:                                        ; preds = %if.then22
  call void @__assert_fail(ptr noundef @.str.7, ptr noundef @.str, i32 noundef 1287, ptr noundef @__PRETTY_FUNCTION__.compress_send_queued_data) #14
  unreachable

if.end27:                                         ; preds = %if.then25
  %29 = load ptr, ptr %pss, align 8
  %30 = load ptr, ptr %file, align 8
  %31 = load ptr, ptr %block, align 8
  %32 = load i64, ptr %offset, align 8
  %or28 = or i64 %32, 256
  %call29 = call i64 @save_page_header(ptr noundef %29, ptr noundef %30, ptr noundef %31, i64 noundef %or28)
  %33 = load i32, ptr %len, align 4
  %conv30 = sext i32 %33 to i64
  %add31 = add i64 %conv30, %call29
  %conv32 = trunc i64 %add31 to i32
  store i32 %conv32, ptr %len, align 4
  %34 = load ptr, ptr %file, align 8
  %35 = load ptr, ptr %param.addr, align 8
  %file33 = getelementptr inbounds %struct.CompressParam, ptr %35, i32 0, i32 4
  %36 = load ptr, ptr %file33, align 8
  %call34 = call i32 @qemu_put_qemu_file(ptr noundef %34, ptr noundef %36)
  %37 = load i32, ptr %len, align 4
  %add35 = add i32 %37, %call34
  store i32 %add35, ptr %len, align 4
  br label %if.end37

if.else36:                                        ; preds = %if.else18
  call void @abort() #14
  unreachable

if.end37:                                         ; preds = %if.end27
  br label %if.end38

if.end38:                                         ; preds = %if.end37, %if.end14
  %38 = load ptr, ptr %param.addr, align 8
  %39 = load i32, ptr %len, align 4
  call void @update_compress_thread_counts(ptr noundef %38, i32 noundef %39)
  %40 = load i32, ptr %len, align 4
  store i32 %40, ptr %retval, align 4
  br label %return

return:                                           ; preds = %if.end38, %if.then
  %41 = load i32, ptr %retval, align 4
  ret i32 %41
}