; Function Attrs: nounwind sspstrong uwtable
define dso_local noundef i32 @compress_send_queued_data(ptr noundef %param) #0 {
entry:
  %0 = load ptr, ptr @ram_state, align 8
  %call = tail call ptr @migrate_get_current() #18
  %to_dst_file = getelementptr inbounds nuw i8, ptr %call, i64 184
  %1 = load ptr, ptr %to_dst_file, align 8
  %block2 = getelementptr inbounds nuw i8, ptr %param, i64 120
  %2 = load ptr, ptr %block2, align 8
  %offset3 = getelementptr inbounds nuw i8, ptr %param, i64 128
  %3 = load i64, ptr %offset3, align 8
  %result = getelementptr inbounds nuw i8, ptr %param, i64 4
  %4 = load i32, ptr %result, align 4
  %cmp = icmp eq i32 %4, 0
  br i1 %cmp, label %return, label %if.end

if.end:                                           ; preds = %entry
  %last_sent_block = getelementptr inbounds nuw i8, ptr %0, i64 8
  %5 = load ptr, ptr %last_sent_block, align 8
  %cmp4 = icmp eq ptr %2, %5
  br i1 %cmp4, label %if.end6, label %if.else

if.else:                                          ; preds = %if.end
  tail call void @__assert_fail(ptr noundef nonnull @.str.5, ptr noundef nonnull @.str, i32 noundef 1278, ptr noundef nonnull @__PRETTY_FUNCTION__.compress_send_queued_data) #19
  unreachable

if.end6:                                          ; preds = %if.end
  switch i32 %4, label %if.else36 [
    i32 1, label %if.then9
    i32 2, label %if.then22
  ]

if.then9:                                         ; preds = %if.end6
  %file10 = getelementptr inbounds nuw i8, ptr %param, i64 8
  %6 = load ptr, ptr %file10, align 8
  %call11 = tail call zeroext i1 @qemu_file_buffer_empty(ptr noundef %6) #18
  br i1 %call11, label %if.end14, label %if.else13

if.else13:                                        ; preds = %if.then9
  tail call void @__assert_fail(ptr noundef nonnull @.str.6, ptr noundef nonnull @.str, i32 noundef 1281, ptr noundef nonnull @__PRETTY_FUNCTION__.compress_send_queued_data) #19
  unreachable

if.end14:                                         ; preds = %if.then9
  %7 = load ptr, ptr %last_sent_block, align 8
  %cmp.i = icmp eq ptr %2, %7
  %spec.select.i.v = select i1 %cmp.i, i64 34, i64 2
  %spec.select.i = or i64 %spec.select.i.v, %3
  tail call void @qemu_put_be64(ptr noundef %1, i64 noundef %spec.select.i) #18
  br i1 %cmp.i, label %save_page_header.exit, label %if.then2.i

if.then2.i:                                       ; preds = %if.end14
  %idstr.i = getelementptr inbounds nuw i8, ptr %2, i64 76
  %call.i = tail call i64 @strlen(ptr noundef nonnull dereferenceable(1) %idstr.i) #21
  %conv.i = trunc i64 %call.i to i32
  tail call void @qemu_put_byte(ptr noundef %1, i32 noundef %conv.i) #18
  tail call void @qemu_put_buffer(ptr noundef %1, ptr noundef nonnull %idstr.i, i64 noundef %call.i) #18
  store ptr %2, ptr %last_sent_block, align 8
  %8 = add i32 %conv.i, 10
  br label %save_page_header.exit

save_page_header.exit:                            ; preds = %if.end14, %if.then2.i
  %size.0.i = phi i32 [ 9, %if.end14 ], [ %8, %if.then2.i ]
  tail call void @qemu_put_byte(ptr noundef %1, i32 noundef 0) #18
  %idstr = getelementptr inbounds nuw i8, ptr %2, i64 76
  %call.i25 = tail call zeroext i1 @migrate_release_ram() #18
  br i1 %call.i25, label %lor.lhs.false.i, label %if.end38

lor.lhs.false.i:                                  ; preds = %save_page_header.exit
  %call1.i = tail call zeroext i1 @migration_in_postcopy() #18
  br i1 %call1.i, label %if.end.i, label %if.end38

if.end.i:                                         ; preds = %lor.lhs.false.i
  %call2.i = tail call i32 @ram_discard_range(ptr noundef nonnull %idstr, i64 noundef %3, i64 noundef 4096)
  br label %if.end38

if.then22:                                        ; preds = %if.end6
  %file23 = getelementptr inbounds nuw i8, ptr %param, i64 8
  %9 = load ptr, ptr %file23, align 8
  %call24 = tail call zeroext i1 @qemu_file_buffer_empty(ptr noundef %9) #18
  br i1 %call24, label %if.else26, label %if.end27

if.else26:                                        ; preds = %if.then22
  tail call void @__assert_fail(ptr noundef nonnull @.str.7, ptr noundef nonnull @.str, i32 noundef 1287, ptr noundef nonnull @__PRETTY_FUNCTION__.compress_send_queued_data) #19
  unreachable

if.end27:                                         ; preds = %if.then22
  %10 = load ptr, ptr %last_sent_block, align 8
  %cmp.i27 = icmp eq ptr %2, %10
  %spec.select.i29.v = select i1 %cmp.i27, i64 288, i64 256
  %spec.select.i29 = or i64 %spec.select.i29.v, %3
  tail call void @qemu_put_be64(ptr noundef %1, i64 noundef %spec.select.i29) #18
  br i1 %cmp.i27, label %save_page_header.exit36, label %if.then2.i30

if.then2.i30:                                     ; preds = %if.end27
  %idstr.i31 = getelementptr inbounds nuw i8, ptr %2, i64 76
  %call.i32 = tail call i64 @strlen(ptr noundef nonnull dereferenceable(1) %idstr.i31) #21
  %conv.i33 = trunc i64 %call.i32 to i32
  tail call void @qemu_put_byte(ptr noundef %1, i32 noundef %conv.i33) #18
  tail call void @qemu_put_buffer(ptr noundef %1, ptr noundef nonnull %idstr.i31, i64 noundef %call.i32) #18
  store ptr %2, ptr %last_sent_block, align 8
  %11 = add i32 %conv.i33, 9
  br label %save_page_header.exit36

save_page_header.exit36:                          ; preds = %if.end27, %if.then2.i30
  %size.0.i35 = phi i32 [ 8, %if.end27 ], [ %11, %if.then2.i30 ]
  %12 = load ptr, ptr %file23, align 8
  %call34 = tail call i32 @qemu_put_qemu_file(ptr noundef %1, ptr noundef %12) #18
  %add35 = add i32 %call34, %size.0.i35
  br label %if.end38

if.else36:                                        ; preds = %if.end6
  tail call void @abort() #19
  unreachable

if.end38:                                         ; preds = %if.end.i, %lor.lhs.false.i, %save_page_header.exit, %save_page_header.exit36
  %len.0 = phi i32 [ %add35, %save_page_header.exit36 ], [ %size.0.i, %save_page_header.exit ], [ %size.0.i, %lor.lhs.false.i ], [ %size.0.i, %if.end.i ]
  tail call void @update_compress_thread_counts(ptr noundef nonnull %param, i32 noundef %len.0) #18
  br label %return

return:                                           ; preds = %entry, %if.end38
  %retval.0 = phi i32 [ %len.0, %if.end38 ], [ 0, %entry ]
  ret i32 %retval.0
}